; Function Attrs: nounwind uwtable
define dso_local noundef ptr @CreateTemplateTupleDesc(i32 noundef %0) local_unnamed_addr #0 {
  %2 = sext i32 %0 to i64
  %reass.mul = mul nsw i64 %2, 116
  %3 = add nsw i64 %reass.mul, 24
  %4 = tail call ptr @palloc(i64 noundef %3) #11
  store i32 %0, ptr %4, align 8
  %5 = getelementptr inbounds nuw i8, ptr %4, i64 16
  store ptr null, ptr %5, align 8
  %6 = getelementptr inbounds nuw i8, ptr %4, i64 4
  store i32 2249, ptr %6, align 4
  %7 = getelementptr inbounds nuw i8, ptr %4, i64 8
  store i32 -1, ptr %7, align 8
  %8 = getelementptr inbounds nuw i8, ptr %4, i64 12
  store i32 -1, ptr %8, align 4
  ret ptr %4
}